; Function Attrs: nounwind uwtable
define internal void @heapctypewithrelativeweakref_dealloc(ptr noundef %0) #0 {
  %2 = getelementptr i8, ptr %0, i64 8
  %.val = load ptr, ptr %2, align 8, !tbaa !27
  %3 = tail call ptr @PyObject_GetTypeData(ptr noundef %0, ptr noundef %.val) #8
  %4 = getelementptr inbounds nuw i8, ptr %3, i64 8
  %5 = load ptr, ptr %4, align 8, !tbaa !32
  %.not = icmp eq ptr %5, null
  br i1 %.not, label %Py_XDECREF.exit, label %6

6:                                                ; preds = %1
  tail call void @PyObject_ClearWeakRefs(ptr noundef nonnull %0) #8
  %.pr = load ptr, ptr %4, align 8, !tbaa !32
  %.not.i = icmp eq ptr %.pr, null
  br i1 %.not.i, label %Py_XDECREF.exit, label %7

7:                                                ; preds = %6
  tail call void @_Py_DecRef(ptr noundef nonnull %.pr) #8
  br label %Py_XDECREF.exit

Py_XDECREF.exit:                                  ; preds = %1, %6, %7
  tail call void @PyObject_Free(ptr noundef nonnull %0) #8
  tail call void @_Py_DecRef(ptr noundef %.val) #8
  ret void
}